target datalayout = "e-m:e-p270:32:32-p271:32:32-p272:64:64-i64:64-i128:128-f80:128-n8:16:32:64-S128"
target triple = "x86_64-unknown-linux-gnu"

; Function Attrs: mustprogress uwtable
define hidden noundef i64 @_ZN3ue218target_to_platformERKNS_8target_tE(ptr noundef nonnull align 8 dereferenceable(16) %target_info) #3 {
entry:
  %target_info.addr = alloca ptr, align 8
  %p = alloca i64, align 8
  store ptr %target_info, ptr %target_info.addr, align 8
  store i64 0, ptr %p, align 8
  %0 = load ptr, ptr %target_info.addr, align 8
  %call = call noundef zeroext i1 @_ZNK3ue28target_t8has_avx2Ev(ptr noundef nonnull align 8 dereferenceable(16) %0)
  br i1 %call, label %if.end, label %if.then

if.then:                                          ; preds = %entry
  %1 = load i64, ptr %p, align 8
  %or = or i64 %1, 32768
  store i64 %or, ptr %p, align 8
  br label %if.end

if.end:                                           ; preds = %if.then, %entry
  %2 = load ptr, ptr %target_info.addr, align 8
  %call1 = call noundef zeroext i1 @_ZNK3ue28target_t10has_avx512Ev(ptr noundef nonnull align 8 dereferenceable(16) %2)
  br i1 %call1, label %if.end4, label %if.then2

if.then2:                                         ; preds = %if.end
  %3 = load i64, ptr %p, align 8
  %or3 = or i64 %3, 65536
  store i64 %or3, ptr %p, align 8
  br label %if.end4

if.end4:                                          ; preds = %if.then2, %if.end
  %4 = load ptr, ptr %target_info.addr, align 8
  %call5 = call noundef zeroext i1 @_ZNK3ue28target_t14has_avx512vbmiEv(ptr noundef nonnull align 8 dereferenceable(16) %4)
  br i1 %call5, label %if.end8, label %if.then6

if.then6:                                         ; preds = %if.end4
  %5 = load i64, ptr %p, align 8
  %or7 = or i64 %5, 131072
  store i64 %or7, ptr %p, align 8
  br label %if.end8

if.end8:                                          ; preds = %if.then6, %if.end4
  %6 = load i64, ptr %p, align 8
  ret i64 %6
}