; Function Attrs: mustprogress uwtable
define hidden noundef i64 @_ZN3ue218target_to_platformERKNS_8target_tE(ptr noundef nonnull align 8 dereferenceable(16) %target_info) local_unnamed_addr #2 {
entry:
  %call = tail call noundef zeroext i1 @_ZNK3ue28target_t8has_avx2Ev(ptr noundef nonnull align 8 dereferenceable(16) %target_info)
  %spec.select = select i1 %call, i64 0, i64 32768
  %call1 = tail call noundef zeroext i1 @_ZNK3ue28target_t10has_avx512Ev(ptr noundef nonnull align 8 dereferenceable(16) %target_info)
  %or3 = or disjoint i64 %spec.select, 65536
  %p.1 = select i1 %call1, i64 %spec.select, i64 %or3
  %call5 = tail call noundef zeroext i1 @_ZNK3ue28target_t14has_avx512vbmiEv(ptr noundef nonnull align 8 dereferenceable(16) %target_info)
  %or7 = or disjoint i64 %p.1, 131072
  %p.2 = select i1 %call5, i64 %p.1, i64 %or7
  ret i64 %p.2
}